target datalayout = "e-m:e-p270:32:32-p271:32:32-p272:64:64-i64:64-i128:128-f80:128-n8:16:32:64-S128"
target triple = "x86_64-pc-linux-gnu"

%struct.qlog_st = type { %struct.qlog_trace_info_st, ptr, [1 x i64], i32, ptr, ptr, ptr, %struct.OSSL_TIME, %struct.OSSL_TIME, %struct.ossl_json_enc_st, i32, i32 }
%struct.qlog_trace_info_st = type { %struct.quic_conn_id_st, ptr, ptr, ptr, i32, ptr, ptr, i64, ptr }
%struct.quic_conn_id_st = type { i8, [20 x i8] }
%struct.OSSL_TIME = type { i64 }
%struct.ossl_json_enc_st = type { i32, i8, i8, i8, ptr, i8, [16 x i8], %struct.json_write_buf, i64, i64 }
%struct.json_write_buf = type { ptr, ptr, i64, i64 }

; Function Attrs: nounwind uwtable
define i32 @ossl_qlog_flush(ptr noundef %0) #0 {
  %2 = alloca i32, align 4
  %3 = alloca ptr, align 8
  store ptr %0, ptr %3, align 8, !tbaa !8
  %4 = load ptr, ptr %3, align 8, !tbaa !8
  %5 = icmp eq ptr %4, null
  br i1 %5, label %6, label %7

6:                                                ; preds = %1
  store i32 1, ptr %2, align 4
  br label %11

7:                                                ; preds = %1
  %8 = load ptr, ptr %3, align 8, !tbaa !8
  %9 = getelementptr inbounds nuw %struct.qlog_st, ptr %8, i32 0, i32 9
  %10 = call i32 @ossl_json_flush(ptr noundef %9)
  store i32 %10, ptr %2, align 4
  br label %11

11:                                               ; preds = %7, %6
  %12 = load i32, ptr %2, align 4
  ret i32 %12
}