; Function Attrs: nounwind uwtable
define i32 @ossl_qlog_flush(ptr noundef %0) local_unnamed_addr #0 {
  %2 = icmp eq ptr %0, null
  br i1 %2, label %6, label %3

3:                                                ; preds = %1
  %4 = getelementptr inbounds nuw i8, ptr %0, i64 152
  %5 = tail call i32 @ossl_json_flush(ptr noundef nonnull %4) #11
  br label %6

6:                                                ; preds = %1, %3
  %.0 = phi i32 [ %5, %3 ], [ 1, %1 ]
  ret i32 %.0
}